(dp1
S'name'
p2
S'The Start Village'
p3
sS'collision'
p4
(lp5
(lp6
I1
aI1
aI1
aI1
aI1
aI1
aI1
aI1
aI1
aI1
aI1
aI1
aI1
aI1
aI1
aI1
aI1
aI1
aI1
aI1
aI1
aI1
aI1
aI1
aI1
aI1
aI1
aI1
aI1
aI1
aI1
aI1
aI1
aI1
aa(lp7
I1
aI1
aI0
aI0
aI1
aI1
aI0
aI0
aI0
aI0
aI0
aI0
aI0
aI0
aI1
aI1
aI1
aI1
aI1
aI1
aI0
aI1
aI1
aI1
aI0
aI0
aI0
aI0
aI0
aI1
aI1
aI1
aI1
aI1
aa(lp8
I1
aI1
aI0
aI0
aI0
aI0
aI0
aI1
aI1
aI1
aI0
aI0
aI0
aI0
aI0
aI0
aI0
aI0
aI1
aI1
aI0
aI0
aI0
aI0
aI0
aI0
aI0
aI0
aI0
aI0
aI0
aI0
aI1
aI1
aa(lp9
I1
aI1
aI0
aI0
aI0
aI0
aI0
aI1
aI1
aI1
aI0
aI0
aI0
aI0
aI0
aI0
aI0
aI0
aI1
aI1
aI0
aI0
aI0
aI0
aI0
aI0
aI0
aI0
aI0
aI0
aI0
aI0
aI1
aI1
aa(lp10
I1
aI0
aI0
aI0
aI0
aI0
aI0
aI0
aI0
aI0
aI0
aI0
aI0
aI0
aI0
aI0
aI0
aI0
aI0
aI0
aI0
aI0
aI0
aI0
aI0
aI0
aI0
aI0
aI0
aI0
aI0
aI0
aI1
aI1
aa(lp11
I1
aI0
aI0
aI0
aI0
aI0
aI0
aI0
aI0
aI0
aI0
aI0
aI0
aI0
aI0
aI0
aI0
aI0
aI0
aI0
aI0
aI0
aI0
aI0
aI0
aI0
aI0
aI0
aI0
aI0
aI0
aI0
aI1
aI1
aa(lp12
I1
aI0
aI0
aI0
aI0
aI0
aI0
aI0
aI0
aI0
aI0
aI0
aI0
aI0
aI0
aI0
aI0
aI0
aI0
aI0
aI0
aI0
aI0
aI0
aI0
aI0
aI0
aI0
aI0
aI0
aI0
aI0
aI1
aI1
aa(lp13
I1
aI0
aI0
aI0
aI0
aI0
aI0
aI0
aI0
aI0
aI0
aI0
aI0
aI0
aI0
aI0
aI0
aI0
aI0
aI0
aI0
aI0
aI0
aI0
aI0
aI0
aI0
aI0
aI0
aI0
aI0
aI0
aI1
aI1
aa(lp14
I1
aI0
aI0
aI0
aI0
aI0
aI0
aI0
aI0
aI0
aI0
aI0
aI0
aI0
aI0
aI0
aI0
aI0
aI0
aI0
aI0
aI0
aI0
aI0
aI0
aI0
aI0
aI0
aI0
aI0
aI0
aI0
aI1
aI1
aa(lp15
I1
aI0
aI0
aI0
aI0
aI0
aI0
aI0
aI0
aI0
aI0
aI0
aI0
aI0
aI0
aI0
aI0
aI0
aI0
aI0
aI0
aI0
aI0
aI0
aI0
aI0
aI0
aI0
aI0
aI0
aI0
aI0
aI1
aI1
aa(lp16
I1
aI0
aI0
aI0
aI0
aI0
aI0
aI0
aI0
aI0
aI0
aI0
aI0
aI0
aI0
aI0
aI0
aI0
aI0
aI0
aI0
aI0
aI0
aI0
aI0
aI0
aI0
aI0
aI0
aI0
aI0
aI0
aI1
aI1
aa(lp17
I1
aI0
aI0
aI0
aI0
aI0
aI0
aI0
aI0
aI0
aI0
aI0
aI0
aI0
aI0
aI0
aI0
aI0
aI0
aI0
aI0
aI0
aI0
aI0
aI0
aI0
aI0
aI0
aI0
aI0
aI0
aI0
aI1
aI1
aa(lp18
I1
aI1
aI0
aI0
aI0
aI0
aI0
aI0
aI0
aI0
aI0
aI0
aI0
aI0
aI0
aI0
aI0
aI0
aI0
aI0
aI0
aI0
aI0
aI0
aI0
aI0
aI0
aI0
aI0
aI0
aI0
aI0
aI1
aI1
aa(lp19
I1
aI0
aI0
aI0
aI0
aI0
aI0
aI0
aI0
aI0
aI0
aI0
aI0
aI0
aI0
aI0
aI0
aI0
aI0
aI0
aI0
aI0
aI0
aI0
aI0
aI0
aI0
aI0
aI0
aI0
aI0
aI0
aI1
aI1
aa(lp20
I1
aI1
aI0
aI0
aI0
aI0
aI0
aI0
aI0
aI0
aI0
aI0
aI0
aI0
aI0
aI0
aI0
aI0
aI0
aI0
aI0
aI0
aI0
aI0
aI0
aI0
aI0
aI0
aI0
aI0
aI0
aI0
aI1
aI1
aa(lp21
I1
aI1
aI0
aI0
aI1
aI1
aI0
aI1
aI1
aI1
aI0
aI0
aI0
aI0
aI0
aI0
aI0
aI0
aI0
aI0
aI0
aI0
aI0
aI0
aI0
aI0
aI0
aI0
aI0
aI0
aI0
aI0
aI1
aI1
aa(lp22
I1
aI0
aI0
aI0
aI0
aI0
aI0
aI1
aI1
aI1
aI0
aI0
aI0
aI0
aI0
aI0
aI0
aI0
aI0
aI0
aI0
aI0
aI0
aI0
aI0
aI0
aI0
aI0
aI0
aI1
aI1
aI0
aI1
aI1
aa(lp23
I1
aI0
aI0
aI1
aI1
aI1
aI0
aI0
aI0
aI0
aI0
aI0
aI0
aI0
aI0
aI0
aI0
aI0
aI0
aI0
aI0
aI0
aI0
aI0
aI0
aI0
aI0
aI0
aI1
aI0
aI0
aI0
aI1
aI1
aa(lp24
I1
aI1
aI0
aI0
aI0
aI1
aI1
aI1
aI1
aI1
aI1
aI1
aI1
aI1
aI1
aI1
aI0
aI1
aI1
aI1
aI1
aI1
aI1
aI1
aI1
aI1
aI1
aI1
aI1
aI1
aI1
aI1
aI1
aI1
aa(lp25
I1
aI1
aI1
aI1
aI1
aI1
aI1
aI1
aI1
aI1
aI1
aI1
aI1
aI1
aI1
aI1
aI1
aI1
aI1
aI1
aI1
aI1
aI1
aI1
aI1
aI1
aI1
aI1
aI1
aI1
aI1
aI1
aI1
aI1
aasS'skybox'
p26
S'hipshot2'
p27
sS'mapObjects'
p28
(lp29
(lp30
S'barrel_3'
p31
aS'barrel'
p32
aclibpanda
Point3
p33
(F28.439567565917969
F17.63890266418457
F0
tRp34
aclibpanda
VBase3
p35
(F0
F0
F0
tRp36
ag35
(F1
F1
F1
tRp37
aa(lp38
S'crate_7'
p39
aS'crate'
p40
ag33
(F3.2285125255584717
F17.706083297729492
F0
tRp41
ag35
(F22.177051544189453
F0
F0
tRp42
ag35
(F1
F1
F1
tRp43
aa(lp44
S'table_2'
p45
aS'table'
p46
ag33
(F8.579747200012207
F15.857423782348633
F0
tRp47
ag35
(F0
F0
F0
tRp48
ag35
(F0.78034192323684692
F0.78034192323684692
F0.78034192323684692
tRp49
aa(lp50
S'crate2_1'
p51
aS'crate2'
p52
ag33
(F5.1543974876403809
F15.654596328735352
F0.81313419342041016
tRp53
ag35
(F0
F0
F0
tRp54
ag35
(F1
F1
F1
tRp55
aa(lp56
S'table_1'
p57
aS'table'
p58
ag33
(F8.4639081954956055
F2.9463818073272705
F0
tRp59
ag35
(F0
F0
F0
tRp60
ag35
(F0.80701297521591187
F0.80701297521591187
F0.80701297521591187
tRp61
aa(lp62
S'barrel_1'
p63
ag32
ag33
(F4.9869298934936523
F17.392080307006836
F0
tRp64
ag35
(F0
F0
F0
tRp65
ag35
(F1
F1
F1
tRp66
aa(lp67
S'crate_2'
p68
ag40
ag33
(F5.4056005477905273
F15.591795921325684
F0
tRp69
ag35
(F0
F0
F0
tRp70
ag35
(F1
F1
F1
tRp71
aa(lp72
S'crate_1'
p73
ag40
ag33
(F4.5682587623596191
F15.612730026245117
F0
tRp74
ag35
(F0
F0
F0
tRp75
ag35
(F1
F1
F1
tRp76
aa(lp77
S'barrel_2'
p78
ag32
ag33
(F5.7994036674499512
F17.7332763671875
F0
tRp79
ag35
(F0
F0
F0
tRp80
ag35
(F1
F1
F1
tRp81
aa(lp82
S'bed_1'
p83
aS'bed'
p84
ag33
(F18.999149322509766
F3.0130152702331543
F0
tRp85
ag35
(F-180.81491088867188
F0
F0
tRp86
ag35
(F1
F1
F1
tRp87
aa(lp88
S'crate_6'
p89
aS'crate'
p90
ag33
(F29.783699035644531
F16.742332458496094
F0.80237501859664917
tRp91
ag35
(F0
F0
F0
tRp92
ag35
(F1
F1
F1
tRp93
aa(lp94
S'crate_5'
p95
ag90
ag33
(F30.449159622192383
F16.518918991088867
F0
tRp96
ag35
(F0
F0
F0
tRp97
ag35
(F1
F1
F1
tRp98
aa(lp99
S'crate_4'
p100
ag90
ag33
(F29.518970489501953
F16.654354095458984
F0
tRp101
ag35
(F0
F0
F0
tRp102
ag35
(F1
F1
F1
tRp103
aasS'groundTexScale'
p104
F5
sS'walls'
p105
(lp106
(lp107
F0.40000000000000002
aF3
aS'img/textures/bborder03.jpg'
p108
a(lp109
g33
(F20
F0
F0
tRp110
ag33
(F20
F15
F0
tRp111
aaa(lp112
F0.40000000000000002
aF3
ag108
a(lp113
g33
(F12
F0
F0
tRp114
ag33
(F12
F15
F0
tRp115
aaasS'music'
p116
S'music/Irradiated_Dreams.ogg'
p117
sS'innerWall'
p118
(lp119
F4
aS'img/textures/wood03.jpg'
p120
aF5
asS'groundTex'
p121
S'img/textures/woodfloor03.jpg'
p122
sS'Y'
I20
sS'X'
I34
s.