(dp1
S'name'
p2
S'The Start Village'
p3
sS'collision'
p4
(lp5
(lp6
I0
aI0
aI0
aI0
aI0
aI0
aI0
aI0
aI0
aI0
aI0
aI0
aI0
aI0
aI0
aI0
aI0
aI0
aI0
aI0
aI0
aI0
aI0
aI0
aI0
aI0
aI0
aI0
aI0
aI0
aI0
aI0
aI0
aI0
aa(lp7
I0
aI0
aI0
aI0
aI0
aI0
aI0
aI0
aI0
aI0
aI0
aI0
aI0
aI0
aI0
aI0
aI0
aI0
aI0
aI0
aI0
aI0
aI0
aI0
aI0
aI0
aI0
aI0
aI0
aI0
aI0
aI0
aI0
aI0
aa(lp8
I0
aI0
aI0
aI0
aI0
aI0
aI0
aI0
aI0
aI0
aI0
aI0
aI0
aI0
aI0
aI0
aI0
aI0
aI0
aI0
aI0
aI0
aI0
aI0
aI0
aI0
aI0
aI0
aI0
aI0
aI0
aI0
aI0
aI0
aa(lp9
I0
aI0
aI0
aI0
aI0
aI0
aI0
aI0
aI0
aI0
aI0
aI0
aI0
aI0
aI0
aI0
aI0
aI0
aI0
aI0
aI0
aI0
aI0
aI0
aI0
aI0
aI0
aI0
aI0
aI0
aI0
aI0
aI0
aI0
aa(lp10
I0
aI0
aI0
aI0
aI0
aI0
aI0
aI0
aI0
aI0
aI0
aI0
aI0
aI0
aI0
aI0
aI0
aI0
aI0
aI0
aI0
aI0
aI0
aI0
aI0
aI0
aI0
aI0
aI0
aI0
aI0
aI0
aI0
aI0
aa(lp11
I0
aI0
aI0
aI0
aI0
aI0
aI0
aI0
aI0
aI0
aI0
aI0
aI0
aI0
aI0
aI0
aI0
aI0
aI0
aI0
aI0
aI0
aI0
aI0
aI0
aI0
aI0
aI0
aI0
aI0
aI0
aI0
aI0
aI0
aa(lp12
I0
aI0
aI0
aI0
aI0
aI0
aI0
aI0
aI0
aI0
aI0
aI0
aI0
aI0
aI0
aI0
aI0
aI0
aI0
aI0
aI0
aI0
aI0
aI0
aI0
aI0
aI0
aI0
aI0
aI0
aI0
aI0
aI0
aI0
aa(lp13
I0
aI0
aI0
aI0
aI0
aI0
aI0
aI0
aI0
aI0
aI0
aI0
aI0
aI0
aI0
aI0
aI0
aI0
aI0
aI0
aI0
aI0
aI0
aI0
aI0
aI0
aI0
aI0
aI0
aI0
aI0
aI0
aI0
aI0
aa(lp14
I0
aI0
aI0
aI0
aI0
aI0
aI0
aI0
aI0
aI0
aI0
aI0
aI0
aI0
aI0
aI0
aI0
aI0
aI0
aI0
aI0
aI0
aI0
aI0
aI0
aI0
aI0
aI0
aI0
aI0
aI0
aI0
aI0
aI0
aa(lp15
I0
aI0
aI0
aI0
aI0
aI0
aI0
aI0
aI0
aI0
aI0
aI0
aI0
aI0
aI0
aI0
aI0
aI0
aI0
aI0
aI0
aI0
aI0
aI0
aI0
aI0
aI0
aI0
aI0
aI0
aI0
aI0
aI0
aI0
aa(lp16
I0
aI0
aI0
aI0
aI0
aI0
aI0
aI0
aI0
aI0
aI0
aI0
aI0
aI0
aI0
aI0
aI0
aI0
aI0
aI0
aI0
aI0
aI0
aI0
aI0
aI0
aI0
aI0
aI0
aI0
aI0
aI0
aI0
aI0
aa(lp17
I0
aI0
aI0
aI0
aI0
aI0
aI0
aI0
aI0
aI0
aI0
aI0
aI0
aI0
aI0
aI0
aI0
aI0
aI0
aI0
aI0
aI0
aI0
aI0
aI0
aI0
aI0
aI0
aI0
aI0
aI0
aI0
aI0
aI0
aa(lp18
I0
aI0
aI0
aI0
aI0
aI0
aI0
aI0
aI0
aI0
aI0
aI0
aI0
aI0
aI0
aI0
aI0
aI0
aI0
aI0
aI0
aI0
aI0
aI0
aI0
aI0
aI0
aI0
aI0
aI0
aI0
aI0
aI0
aI0
aa(lp19
I0
aI0
aI0
aI0
aI0
aI0
aI0
aI0
aI0
aI0
aI0
aI0
aI0
aI0
aI0
aI0
aI0
aI0
aI0
aI0
aI0
aI0
aI0
aI0
aI0
aI0
aI0
aI0
aI0
aI0
aI0
aI0
aI0
aI0
aa(lp20
I0
aI0
aI0
aI0
aI0
aI0
aI0
aI0
aI0
aI0
aI0
aI0
aI0
aI0
aI0
aI0
aI0
aI0
aI0
aI0
aI0
aI0
aI0
aI0
aI0
aI0
aI0
aI0
aI0
aI0
aI0
aI0
aI0
aI0
aa(lp21
I0
aI0
aI0
aI0
aI0
aI0
aI0
aI0
aI0
aI0
aI0
aI0
aI0
aI0
aI0
aI0
aI0
aI0
aI0
aI0
aI0
aI0
aI0
aI0
aI0
aI0
aI0
aI0
aI0
aI0
aI0
aI0
aI0
aI0
aa(lp22
I0
aI0
aI0
aI0
aI0
aI0
aI0
aI0
aI0
aI0
aI0
aI0
aI0
aI0
aI0
aI0
aI0
aI0
aI0
aI0
aI0
aI0
aI0
aI0
aI0
aI0
aI0
aI0
aI0
aI0
aI0
aI0
aI0
aI0
aa(lp23
I0
aI0
aI0
aI0
aI0
aI0
aI0
aI0
aI0
aI0
aI0
aI0
aI0
aI0
aI0
aI0
aI0
aI0
aI0
aI0
aI0
aI0
aI0
aI0
aI0
aI0
aI0
aI0
aI0
aI0
aI0
aI0
aI0
aI0
aa(lp24
I0
aI0
aI0
aI0
aI0
aI0
aI0
aI0
aI0
aI0
aI0
aI0
aI0
aI0
aI0
aI0
aI0
aI0
aI0
aI0
aI0
aI0
aI0
aI0
aI0
aI0
aI0
aI0
aI0
aI0
aI0
aI0
aI0
aI0
aa(lp25
I0
aI0
aI0
aI0
aI0
aI0
aI0
aI0
aI0
aI0
aI0
aI0
aI0
aI0
aI0
aI0
aI0
aI0
aI0
aI0
aI0
aI0
aI0
aI0
aI0
aI0
aI0
aI0
aI0
aI0
aI0
aI0
aI0
aI0
aasS'skybox'
p26
S'daysky0'
p27
sS'mapObjects'
p28
(lp29
(lp30
S'etagere_3'
p31
aS'etagere'
p32
aclibpanda
Point3
p33
(F32.196445465087891
F14.928824424743652
F0
tRp34
aclibpanda
VBase3
p35
(F-90.374679565429688
F0
F0
tRp36
ag35
(F1
F1
F1
tRp37
aa(lp38
S'etagere_2'
p39
ag32
ag33
(F31.474266052246094
F17.195035934448242
F0
tRp40
ag35
(F-37.805255889892578
F0
F0
tRp41
ag35
(F1
F1
F1
tRp42
aa(lp43
S'etagere_1'
p44
ag32
ag33
(F28.707408905029297
F18.032377243041992
F0
tRp45
ag35
(F0
F0
F0
tRp46
ag35
(F1
F1
F1
tRp47
aa(lp48
S'bench_3'
p49
aS'bench'
p50
ag33
(F27.911445617675781
F9.2811441421508789
F0
tRp51
ag35
(F0
F0
F0
tRp52
ag35
(F1
F1
F1
tRp53
aa(lp54
S'bench_4'
p55
ag50
ag33
(F28.078912734985352
F5.8899121284484863
F0
tRp56
ag35
(F0
F0
F0
tRp57
ag35
(F1
F1
F1
tRp58
aa(lp59
S'bench_5'
p60
ag50
ag33
(F29.753595352172852
F4.0477614402770996
F0
tRp61
ag35
(F40.564857482910156
F0
F0
tRp62
ag35
(F1
F1
F1
tRp63
aa(lp64
S'bench_6'
p65
ag50
ag33
(F31.930683135986328
F1.4101358652114868
F0
tRp66
ag35
(F40.564857482910156
F0
F0
tRp67
ag35
(F1
F1
F1
tRp68
aa(lp69
S'table_2'
p70
aS'table'
p71
ag33
(F27.82771110534668
F7.6774845123291016
F0
tRp72
ag35
(F0
F0
F0
tRp73
ag35
(F1
F1
F1
tRp74
aa(lp75
S'table_3'
p76
ag71
ag33
(F30.758405685424805
F2.7080147266387939
F0
tRp77
ag35
(F42.472206115722656
F0
F0
tRp78
ag35
(F1
F1
F1
tRp79
aa(lp80
S'bench_2'
p81
ag50
ag33
(F28.832521438598633
F12.253705024719238
F0
tRp82
ag35
(F0
F0
F0
tRp83
ag35
(F1
F1
F1
tRp84
aa(lp85
S'table_1'
p86
ag71
ag33
(F28.641485214233398
F14.032098770141602
F0
tRp87
ag35
(F0
F0
F0
tRp88
ag35
(F1
F1
F1
tRp89
aa(lp90
S'crate_3'
p91
aS'crate'
p92
ag33
(F22.306167602539062
F0.68644559383392334
F0.78888404369354248
tRp93
ag35
(F0
F0
F0
tRp94
ag35
(F1
F1
F1
tRp95
aa(lp96
S'crate_2'
p97
ag92
ag33
(F22.971132278442383
F0.69839614629745483
F0
tRp98
ag35
(F0
F0
F0
tRp99
ag35
(F1
F1
F1
tRp100
aa(lp101
S'crate_1'
p102
ag92
ag33
(F21.631385803222656
F0.65652883052825928
F0
tRp103
ag35
(F0
F0
F0
tRp104
ag35
(F1
F1
F1
tRp105
aa(lp106
S'crate_4'
p107
ag92
ag33
(F23.949556350708008
F0.68838077783584595
F0
tRp108
ag35
(F0
F0
F0
tRp109
ag35
(F1
F1
F1
tRp110
aa(lp111
S'crate_6'
p112
ag92
ag33
(F22.880865097045898
F0.69591599702835083
F1.5997928380966187
tRp113
ag35
(F0
F0
F0
tRp114
ag35
(F1
F1
F1
tRp115
aa(lp116
S'crate_5'
p117
ag92
ag33
(F23.452741622924805
F0.67574954032897949
F0.78583699464797974
tRp118
ag35
(F0
F0
F0
tRp119
ag35
(F1
F1
F1
tRp120
aa(lp121
S'bench_1'
p122
ag50
ag33
(F28.748786926269531
F15.812406539916992
F0
tRp123
ag35
(F0
F0
F0
tRp124
ag35
(F1
F1
F1
tRp125
aasS'groundTexScale'
p126
F5
sS'walls'
p127
(lp128
(lp129
F0.40000000000000002
aF3
aS'img/textures/bborder03.jpg'
p130
a(lp131
g33
(F20
F0
F0
tRp132
ag33
(F20
F15
F0
tRp133
aaa(lp134
F0.40000000000000002
aF3
ag130
a(lp135
g33
(F12
F0
F0
tRp136
ag33
(F12
F15
F0
tRp137
aaasS'music'
p138
S'music/Irradiated_Dreams.ogg'
p139
sS'innerWall'
p140
(lp141
F4
aS'img/textures/wood03.jpg'
p142
aF5
asS'groundTex'
p143
S'img/textures/woodfloor03.jpg'
p144
sS'Y'
I20
sS'X'
I34
s.