(dp1
S'playerState'
p2
(igameUtils
PlayerState
p3
(dp4
S'map'
p5
S'maps/interior2.txt'
p6
sS'name'
p7
S'Galya'
p8
sS'hpMax'
p9
I10
sS'hp'
p10
I10
sS'sp'
p11
I10
sS'sex'
p12
S'female'
p13
sS'spMax'
p14
I10
sbsS'questDic'
p15
(dp16
sS'NPCTracker'
p17
(igameUtils
NPCTracker
p18
(dp19
S'mapList'
p20
(lp21
sbs.