(dp1
S'playerState'
p2
(igameUtils
PlayerState
p3
(dp4
S'name'
p5
S'Galya'
p6
sS'hpMax'
p7
I10
sS'hp'
p8
I10
sS'sp'
p9
I10
sS'sex'
p10
S'female'
p11
sS'spMax'
p12
I10
sbsS'questDic'
p13
(dp14
sS'NPCTracker'
p15
(igameUtils
NPCTracker
p16
(dp17
S'mapList'
p18
(lp19
sbs.