(dp1
S'playerState'
p2
(igameUtils
PlayerState
p3
(dp4
S'map'
p5
S'maps/interior2.txt'
p6
sS'name'
p7
S'Galya'
p8
sS'hpMax'
p9
I10
sS'hp'
p10
I10
sS'sp'
p11
I10
sS'sex'
p12
S'female'
p13
sS'spMax'
p14
I10
sS'questDic'
p15
(dp16
S'Camilla'
p17
(dp18
S'main'
p19
I2
sssbsS'NPCTracker'
p20
(igameUtils
NPCTracker
p21
(dp22
S'mapList'
p23
(lp24
sbs.